target datalayout = "e-m:e-p270:32:32-p271:32:32-p272:64:64-i64:64-i128:128-f80:128-n8:16:32:64-S128"
target triple = "x86_64-pc-linux-gnu"

%"class.std::__cxx11::basic_string" = type { %"struct.std::__cxx11::basic_string<char>::_Alloc_hider", i64, %union.anon }
%"struct.std::__cxx11::basic_string<char>::_Alloc_hider" = type { ptr }
%union.anon = type { i64, [8 x i8] }
%"class.Luau::DenseHashSet.300" = type { %"class.Luau::detail::DenseHashTable.301" }
%"class.Luau::detail::DenseHashTable.301" = type <{ ptr, i64, i64, %"class.std::__cxx11::basic_string", [8 x i8] }>
%"struct.Luau::SourceNode" = type { %"class.std::__cxx11::basic_string", %"class.std::__cxx11::basic_string", %"class.Luau::DenseHashSet.300", %"class.std::vector.372", %"class.Luau::Set", i8, i8, i8, i8, i8, double }
%"class.std::vector.372" = type { %"struct.std::_Vector_base.373" }
%"struct.std::_Vector_base.373" = type { %"struct.std::_Vector_base<std::pair<std::__cxx11::basic_string<char>, Luau::Location>, std::allocator<std::pair<std::__cxx11::basic_string<char>, Luau::Location>>>::_Vector_impl" }
%"struct.std::_Vector_base<std::pair<std::__cxx11::basic_string<char>, Luau::Location>, std::allocator<std::pair<std::__cxx11::basic_string<char>, Luau::Location>>>::_Vector_impl" = type { %"struct.std::_Vector_base<std::pair<std::__cxx11::basic_string<char>, Luau::Location>, std::allocator<std::pair<std::__cxx11::basic_string<char>, Luau::Location>>>::_Vector_impl_data" }
%"struct.std::_Vector_base<std::pair<std::__cxx11::basic_string<char>, Luau::Location>, std::allocator<std::pair<std::__cxx11::basic_string<char>, Luau::Location>>>::_Vector_impl_data" = type { ptr, ptr, ptr }
%"class.Luau::Set" = type { %"class.Luau::DenseHashMap.377", i64 }
%"class.Luau::DenseHashMap.377" = type { %"class.Luau::detail::DenseHashTable.378" }
%"class.Luau::detail::DenseHashTable.378" = type <{ ptr, i64, i64, %"class.std::__cxx11::basic_string", [8 x i8] }>
%class.anon.434 = type { i8 }

; Function Attrs: mustprogress nounwind uwtable
define linkonce_odr dso_local void @_ZN4Luau10SourceNode26setInvalidModuleDependencyEbb(ptr noundef nonnull align 8 dereferenceable(240) %0, i1 noundef zeroext %1, i1 noundef zeroext %2) #2 comdat align 2 {
  %4 = alloca ptr, align 8
  %5 = alloca i8, align 1
  %6 = alloca i8, align 1
  store ptr %0, ptr %4, align 8, !tbaa !409
  %7 = zext i1 %1 to i8
  store i8 %7, ptr %5, align 1, !tbaa !26
  %8 = zext i1 %2 to i8
  store i8 %8, ptr %6, align 1, !tbaa !26
  %9 = load ptr, ptr %4, align 8
  %10 = load i8, ptr %6, align 1, !tbaa !26, !range !28, !noundef !29
  %11 = trunc i8 %10 to i1
  br i1 %11, label %12, label %17

12:                                               ; preds = %3
  %13 = load i8, ptr %5, align 1, !tbaa !26, !range !28, !noundef !29
  %14 = trunc i8 %13 to i1
  %15 = getelementptr inbounds nuw %"struct.Luau::SourceNode", ptr %9, i32 0, i32 9
  %16 = zext i1 %14 to i8
  store i8 %16, ptr %15, align 4, !tbaa !754
  br label %22

17:                                               ; preds = %3
  %18 = load i8, ptr %5, align 1, !tbaa !26, !range !28, !noundef !29
  %19 = trunc i8 %18 to i1
  %20 = getelementptr inbounds nuw %"struct.Luau::SourceNode", ptr %9, i32 0, i32 8
  %21 = zext i1 %19 to i8
  store i8 %21, ptr %20, align 1, !tbaa !755
  br label %22

22:                                               ; preds = %17, %12
  ret void
}

; Function Attrs: mustprogress nounwind uwtable
define linkonce_odr dso_local noundef zeroext i1 @_ZNK4Luau10SourceNode26hasInvalidModuleDependencyEb(ptr noundef nonnull align 8 dereferenceable(240) %0, i1 noundef zeroext %1) #2 comdat align 2 {
  %3 = alloca ptr, align 8
  %4 = alloca i8, align 1
  store ptr %0, ptr %3, align 8, !tbaa !409
  %5 = zext i1 %1 to i8
  store i8 %5, ptr %4, align 1, !tbaa !26
  %6 = load ptr, ptr %3, align 8
  %7 = load i8, ptr %4, align 1, !tbaa !26, !range !28, !noundef !29
  %8 = trunc i8 %7 to i1
  br i1 %8, label %9, label %13

9:                                                ; preds = %2
  %10 = getelementptr inbounds nuw %"struct.Luau::SourceNode", ptr %6, i32 0, i32 9
  %11 = load i8, ptr %10, align 4, !tbaa !754, !range !28, !noundef !29
  %12 = trunc i8 %11 to i1
  br label %17

13:                                               ; preds = %2
  %14 = getelementptr inbounds nuw %"struct.Luau::SourceNode", ptr %6, i32 0, i32 8
  %15 = load i8, ptr %14, align 1, !tbaa !755, !range !28, !noundef !29
  %16 = trunc i8 %15 to i1
  br label %17

17:                                               ; preds = %13, %9
  %18 = phi i1 [ %12, %9 ], [ %16, %13 ]
  ret i1 %18
}

; Function Attrs: inlinehint mustprogress nounwind uwtable
define internal noundef zeroext i1 @"_ZZN4Luau8Frontend16recordItemResultERKNS_14BuildQueueItemEENK3$_0clERNS_10SourceNodeE"(ptr noundef nonnull align 1 dereferenceable(1) %0, ptr noundef nonnull align 8 dereferenceable(240) %1) #3 align 2 {
  %3 = alloca ptr, align 8
  %4 = alloca ptr, align 8
  %5 = alloca i8, align 1
  store ptr %0, ptr %3, align 8, !tbaa !56
  store ptr %1, ptr %4, align 8, !tbaa !409
  %6 = load ptr, ptr %3, align 8
  call void @llvm.lifetime.start.p0(i64 1, ptr %5) #4
  %7 = load ptr, ptr %4, align 8, !tbaa !409
  %8 = getelementptr inbounds nuw %class.anon.434, ptr %6, i32 0, i32 0
  %9 = load i8, ptr %8, align 1, !tbaa !585, !range !28, !noundef !29
  %10 = trunc i8 %9 to i1
  %11 = call noundef zeroext i1 @_ZNK4Luau10SourceNode26hasInvalidModuleDependencyEb(ptr noundef nonnull align 8 dereferenceable(240) %7, i1 noundef zeroext %10)
  %12 = xor i1 %11, true
  %13 = zext i1 %12 to i8
  store i8 %13, ptr %5, align 1, !tbaa !26
  %14 = load ptr, ptr %4, align 8, !tbaa !409
  %15 = getelementptr inbounds nuw %class.anon.434, ptr %6, i32 0, i32 0
  %16 = load i8, ptr %15, align 1, !tbaa !585, !range !28, !noundef !29
  %17 = trunc i8 %16 to i1
  call void @_ZN4Luau10SourceNode26setInvalidModuleDependencyEbb(ptr noundef nonnull align 8 dereferenceable(240) %14, i1 noundef zeroext true, i1 noundef zeroext %17)
  %18 = load i8, ptr %5, align 1, !tbaa !26, !range !28, !noundef !29
  %19 = trunc i8 %18 to i1
  call void @llvm.lifetime.end.p0(i64 1, ptr %5) #4
  ret i1 %19
}

; Function Attrs: mustprogress nounwind uwtable
define linkonce_odr dso_local noundef ptr @_ZNKSt9_Any_data9_M_accessEv(ptr noundef nonnull align 8 dereferenceable(16) %0) #2 comdat align 2 {
  %2 = alloca ptr, align 8
  store ptr %0, ptr %2, align 8, !tbaa !2176
  %3 = load ptr, ptr %2, align 8
  %4 = getelementptr inbounds [16 x i8], ptr %3, i64 0, i64 0
  ret ptr %4
}

; Function Attrs: mustprogress uwtable
define internal noundef zeroext i1 @"_ZSt13__invoke_implIbRZN4Luau8Frontend16recordItemResultERKNS0_14BuildQueueItemEE3$_0JRNS0_10SourceNodeEEET_St14__invoke_otherOT0_DpOT1_"(ptr noundef nonnull align 1 dereferenceable(1) %0, ptr noundef nonnull align 8 dereferenceable(240) %1) #6 {
  %3 = alloca ptr, align 8
  %4 = alloca ptr, align 8
  store ptr %0, ptr %3, align 8, !tbaa !56
  store ptr %1, ptr %4, align 8, !tbaa !409
  %5 = load ptr, ptr %3, align 8, !tbaa !56
  %6 = load ptr, ptr %4, align 8, !tbaa !409
  %7 = call noundef zeroext i1 @"_ZZN4Luau8Frontend16recordItemResultERKNS_14BuildQueueItemEENK3$_0clERNS_10SourceNodeE"(ptr noundef nonnull align 1 dereferenceable(1) %5, ptr noundef nonnull align 8 dereferenceable(240) %6)
  ret i1 %7
}

; Function Attrs: mustprogress nounwind uwtable
define internal noundef nonnull align 1 dereferenceable(1) ptr @"_ZNKSt9_Any_data9_M_accessIZN4Luau8Frontend16recordItemResultERKNS1_14BuildQueueItemEE3$_0EERKT_v"(ptr noundef nonnull align 8 dereferenceable(16) %0) #2 align 2 {
  %2 = alloca ptr, align 8
  store ptr %0, ptr %2, align 8, !tbaa !2176
  %3 = load ptr, ptr %2, align 8
  %4 = call noundef ptr @_ZNKSt9_Any_data9_M_accessEv(ptr noundef nonnull align 8 dereferenceable(16) %3) #4
  ret ptr %4
}

; Function Attrs: mustprogress uwtable
define internal noundef zeroext i1 @"_ZSt10__invoke_rIbRZN4Luau8Frontend16recordItemResultERKNS0_14BuildQueueItemEE3$_0JRNS0_10SourceNodeEEENSt9enable_ifIX16is_invocable_r_vIT_T0_DpT1_EESA_E4typeEOSB_DpOSC_"(ptr noundef nonnull align 1 dereferenceable(1) %0, ptr noundef nonnull align 8 dereferenceable(240) %1) #6 {
  %3 = alloca ptr, align 8
  %4 = alloca ptr, align 8
  store ptr %0, ptr %3, align 8, !tbaa !56
  store ptr %1, ptr %4, align 8, !tbaa !409
  %5 = load ptr, ptr %3, align 8, !tbaa !56
  %6 = load ptr, ptr %4, align 8, !tbaa !409
  %7 = call noundef zeroext i1 @"_ZSt13__invoke_implIbRZN4Luau8Frontend16recordItemResultERKNS0_14BuildQueueItemEE3$_0JRNS0_10SourceNodeEEET_St14__invoke_otherOT0_DpOT1_"(ptr noundef nonnull align 1 dereferenceable(1) %5, ptr noundef nonnull align 8 dereferenceable(240) %6)
  ret i1 %7
}

; Function Attrs: mustprogress nounwind uwtable
define internal noundef ptr @"_ZNSt14_Function_base13_Base_managerIZN4Luau8Frontend16recordItemResultERKNS1_14BuildQueueItemEE3$_0E14_M_get_pointerERKSt9_Any_data"(ptr noundef nonnull align 8 dereferenceable(16) %0) #2 align 2 {
  %2 = alloca ptr, align 8
  %3 = alloca ptr, align 8
  store ptr %0, ptr %2, align 8, !tbaa !2176
  call void @llvm.lifetime.start.p0(i64 8, ptr %3) #4
  %4 = load ptr, ptr %2, align 8, !tbaa !2176
  %5 = call noundef nonnull align 1 dereferenceable(1) ptr @"_ZNKSt9_Any_data9_M_accessIZN4Luau8Frontend16recordItemResultERKNS1_14BuildQueueItemEE3$_0EERKT_v"(ptr noundef nonnull align 8 dereferenceable(16) %4) #4
  store ptr %5, ptr %3, align 8, !tbaa !56
  %6 = load ptr, ptr %3, align 8, !tbaa !56
  call void @llvm.lifetime.end.p0(i64 8, ptr %3) #4
  ret ptr %6
}

; Function Attrs: mustprogress uwtable
define internal noundef zeroext i1 @"_ZNSt17_Function_handlerIFbRN4Luau10SourceNodeEEZNS0_8Frontend16recordItemResultERKNS0_14BuildQueueItemEE3$_0E9_M_invokeERKSt9_Any_dataS2_"(ptr noundef nonnull align 8 dereferenceable(16) %0, ptr noundef nonnull align 8 dereferenceable(240) %1) #6 align 2 {
  %3 = alloca ptr, align 8
  %4 = alloca ptr, align 8
  store ptr %0, ptr %3, align 8, !tbaa !2176
  store ptr %1, ptr %4, align 8, !tbaa !409
  %5 = load ptr, ptr %3, align 8, !tbaa !2176
  %6 = call noundef ptr @"_ZNSt14_Function_base13_Base_managerIZN4Luau8Frontend16recordItemResultERKNS1_14BuildQueueItemEE3$_0E14_M_get_pointerERKSt9_Any_data"(ptr noundef nonnull align 8 dereferenceable(16) %5) #4
  %7 = load ptr, ptr %4, align 8, !tbaa !409
  %8 = call noundef zeroext i1 @"_ZSt10__invoke_rIbRZN4Luau8Frontend16recordItemResultERKNS0_14BuildQueueItemEE3$_0JRNS0_10SourceNodeEEENSt9enable_ifIX16is_invocable_r_vIT_T0_DpT1_EESA_E4typeEOSB_DpOSC_"(ptr noundef nonnull align 1 dereferenceable(1) %6, ptr noundef nonnull align 8 dereferenceable(240) %7)
  ret i1 %8
}