; Function Attrs: mustprogress nofree norecurse nosync nounwind willreturn memory(argmem: readwrite) uwtable
define internal noundef zeroext i1 @"_ZNSt17_Function_handlerIFbRN4Luau10SourceNodeEEZNS0_8Frontend16recordItemResultERKNS0_14BuildQueueItemEE3$_0E9_M_invokeERKSt9_Any_dataS2_"(ptr noundef nonnull readonly align 8 captures(none) dereferenceable(16) %0, ptr noundef nonnull align 8 captures(none) dereferenceable(240) %1) #22 align 2 {
  %.val = load i8, ptr %0, align 8, !tbaa !1571, !range !30, !noundef !31
  %3 = trunc nuw i8 %.val to i1
  %.in.in.v.i.i.i.i = select i1 %3, i64 228, i64 227
  %.in.in.i.i.i.i = getelementptr inbounds nuw i8, ptr %1, i64 %.in.in.v.i.i.i.i
  %.in.i.i.i.i = load i8, ptr %.in.in.i.i.i.i, align 1, !tbaa !306, !range !30, !noundef !31
  br i1 %3, label %4, label %6

4:                                                ; preds = %2
  %5 = getelementptr inbounds nuw i8, ptr %1, i64 228
  store i8 1, ptr %5, align 4, !tbaa !596
  br label %"_ZSt10__invoke_rIbRZN4Luau8Frontend16recordItemResultERKNS0_14BuildQueueItemEE3$_0JRNS0_10SourceNodeEEENSt9enable_ifIX16is_invocable_r_vIT_T0_DpT1_EESA_E4typeEOSB_DpOSC_.exit"

6:                                                ; preds = %2
  %7 = getelementptr inbounds nuw i8, ptr %1, i64 227
  store i8 1, ptr %7, align 1, !tbaa !597
  br label %"_ZSt10__invoke_rIbRZN4Luau8Frontend16recordItemResultERKNS0_14BuildQueueItemEE3$_0JRNS0_10SourceNodeEEENSt9enable_ifIX16is_invocable_r_vIT_T0_DpT1_EESA_E4typeEOSB_DpOSC_.exit"

"_ZSt10__invoke_rIbRZN4Luau8Frontend16recordItemResultERKNS0_14BuildQueueItemEE3$_0JRNS0_10SourceNodeEEENSt9enable_ifIX16is_invocable_r_vIT_T0_DpT1_EESA_E4typeEOSB_DpOSC_.exit": ; preds = %4, %6
  %8 = trunc nuw i8 %.in.i.i.i.i to i1
  %9 = xor i1 %8, true
  ret i1 %9
}